; Function Attrs: mustprogress uwtable
define hidden void @_ZN3vas2ot12RgbHistogram7ComputeERKN2cv3MatEPS3_(ptr noundef nonnull readonly align 8 captures(none) dereferenceable(20) %0, ptr noundef nonnull readonly align 8 captures(none) dereferenceable(96) %1, ptr noundef nonnull %2) unnamed_addr #5 align 2 {
  %4 = alloca %"class.cv::Scalar_", align 8
  %5 = getelementptr inbounds nuw i8, ptr %0, i64 16
  %6 = load i32, ptr %5, align 8, !tbaa !12
  tail call void @_ZN2cv3Mat6createEiii(ptr noundef nonnull align 8 dereferenceable(96) %2, i32 noundef 1, i32 noundef %6, i32 noundef 5)
  call void @llvm.lifetime.start.p0(i64 32, ptr nonnull %4) #12
  call void @llvm.memset.p0.i64(ptr noundef nonnull align 8 dereferenceable(32) %4, i8 0, i64 32, i1 false)
  %7 = call noundef nonnull align 8 dereferenceable(96) ptr @_ZN2cv3MataSERKNS_7Scalar_IdEE(ptr noundef nonnull align 8 dereferenceable(96) %2, ptr noundef nonnull align 8 dereferenceable(32) %4)
  call void @llvm.lifetime.end.p0(i64 32, ptr nonnull %4) #12
  %8 = getelementptr inbounds nuw i8, ptr %2, i64 16
  %9 = load ptr, ptr %8, align 8, !tbaa !13
  %10 = getelementptr inbounds nuw i8, ptr %1, i64 8
  %11 = load i32, ptr %10, align 8, !tbaa !23
  %12 = icmp sgt i32 %11, 0
  br i1 %12, label %.lr.ph23.i, label %_ZNK3vas2ot12RgbHistogram22AccumulateRgbHistogramERKN2cv3MatEPf.exit

.lr.ph23.i:                                       ; preds = %3
  %13 = getelementptr inbounds nuw i8, ptr %1, i64 16
  %14 = load ptr, ptr %13, align 8, !tbaa !13
  %15 = getelementptr inbounds nuw i8, ptr %1, i64 72
  %16 = load ptr, ptr %15, align 8, !tbaa !24
  %17 = load i64, ptr %16, align 8, !tbaa !25
  %18 = getelementptr inbounds nuw i8, ptr %1, i64 12
  %19 = load i32, ptr %18, align 4, !tbaa !27
  %20 = icmp sgt i32 %19, 0
  %21 = getelementptr inbounds nuw i8, ptr %0, i64 8
  %22 = load i32, ptr %21, align 8
  %23 = getelementptr inbounds nuw i8, ptr %0, i64 12
  %24 = load i32, ptr %23, align 4
  br i1 %20, label %.lr.ph.us.preheader.i, label %_ZNK3vas2ot12RgbHistogram22AccumulateRgbHistogramERKN2cv3MatEPf.exit

.lr.ph.us.preheader.i:                            ; preds = %.lr.ph23.i
  %wide.trip.count30.i = zext nneg i32 %11 to i64
  %wide.trip.count.i = zext nneg i32 %19 to i64
  br label %.lr.ph.us.i

.lr.ph.us.i:                                      ; preds = %._crit_edge.us.i, %.lr.ph.us.preheader.i
  %indvars.iv27.i = phi i64 [ 0, %.lr.ph.us.preheader.i ], [ %indvars.iv.next28.i, %._crit_edge.us.i ]
  %25 = mul i64 %indvars.iv27.i, %17
  %26 = getelementptr inbounds nuw i8, ptr %14, i64 %25
  br label %27

27:                                               ; preds = %27, %.lr.ph.us.i
  %indvars.iv.i = phi i64 [ 0, %.lr.ph.us.i ], [ %indvars.iv.next.i, %27 ]
  %28 = getelementptr inbounds nuw %"class.cv::Vec.0", ptr %26, i64 %indvars.iv.i
  %29 = load i8, ptr %28, align 1, !tbaa !28
  %30 = zext i8 %29 to i32
  %31 = sdiv i32 %30, %22
  %32 = getelementptr inbounds nuw i8, ptr %28, i64 1
  %33 = load i8, ptr %32, align 1, !tbaa !28
  %34 = zext i8 %33 to i32
  %35 = sdiv i32 %34, %22
  %36 = getelementptr inbounds nuw i8, ptr %28, i64 2
  %37 = load i8, ptr %36, align 1, !tbaa !28
  %38 = zext i8 %37 to i32
  %39 = sdiv i32 %38, %22
  %40 = mul nsw i32 %31, %24
  %41 = add nsw i32 %35, %40
  %42 = mul nsw i32 %41, %24
  %43 = add nsw i32 %42, %39
  %44 = sext i32 %43 to i64
  %45 = getelementptr inbounds float, ptr %9, i64 %44
  %46 = load float, ptr %45, align 4, !tbaa !29
  %47 = fadd float %46, 1.000000e+00
  store float %47, ptr %45, align 4, !tbaa !29
  %indvars.iv.next.i = add nuw nsw i64 %indvars.iv.i, 1
  %exitcond.not.i = icmp eq i64 %indvars.iv.next.i, %wide.trip.count.i
  br i1 %exitcond.not.i, label %._crit_edge.us.i, label %27, !llvm.loop !31

._crit_edge.us.i:                                 ; preds = %27
  %indvars.iv.next28.i = add nuw nsw i64 %indvars.iv27.i, 1
  %exitcond31.not.i = icmp eq i64 %indvars.iv.next28.i, %wide.trip.count30.i
  br i1 %exitcond31.not.i, label %_ZNK3vas2ot12RgbHistogram22AccumulateRgbHistogramERKN2cv3MatEPf.exit, label %.lr.ph.us.i, !llvm.loop !33

_ZNK3vas2ot12RgbHistogram22AccumulateRgbHistogramERKN2cv3MatEPf.exit: ; preds = %._crit_edge.us.i, %3, %.lr.ph23.i
  ret void
}